
Project smartzone.elf:     file format elf32-avr

Sections:
Idx Name          Size      VMA       LMA       File off  Algn
  0 .data         00000012  00800100  000006a2  00000716  2**0
                  CONTENTS, ALLOC, LOAD, DATA
  1 .text         000006a2  00000000  00000000  00000074  2**1
                  CONTENTS, ALLOC, LOAD, READONLY, CODE
  2 .comment      00000030  00000000  00000000  00000728  2**0
                  CONTENTS, READONLY
  3 .note.gnu.avr.deviceinfo 00000040  00000000  00000000  00000758  2**2
                  CONTENTS, READONLY
  4 .debug_aranges 00000098  00000000  00000000  00000798  2**0
                  CONTENTS, READONLY, DEBUGGING
  5 .debug_info   00001221  00000000  00000000  00000830  2**0
                  CONTENTS, READONLY, DEBUGGING
  6 .debug_abbrev 00000b69  00000000  00000000  00001a51  2**0
                  CONTENTS, READONLY, DEBUGGING
  7 .debug_line   0000075b  00000000  00000000  000025ba  2**0
                  CONTENTS, READONLY, DEBUGGING
  8 .debug_frame  00000160  00000000  00000000  00002d18  2**2
                  CONTENTS, READONLY, DEBUGGING
  9 .debug_str    00000594  00000000  00000000  00002e78  2**0
                  CONTENTS, READONLY, DEBUGGING
 10 .debug_loc    0000069a  00000000  00000000  0000340c  2**0
                  CONTENTS, READONLY, DEBUGGING
 11 .debug_ranges 00000078  00000000  00000000  00003aa6  2**0
                  CONTENTS, READONLY, DEBUGGING

Disassembly of section .text:

00000000 <__vectors>:
   0:	0c 94 5a 00 	jmp	0xb4	; 0xb4 <__ctors_end>
   4:	0c 94 6f 00 	jmp	0xde	; 0xde <__bad_interrupt>
   8:	0c 94 6f 00 	jmp	0xde	; 0xde <__bad_interrupt>
   c:	0c 94 6f 00 	jmp	0xde	; 0xde <__bad_interrupt>
  10:	0c 94 6f 00 	jmp	0xde	; 0xde <__bad_interrupt>
  14:	0c 94 6f 00 	jmp	0xde	; 0xde <__bad_interrupt>
  18:	0c 94 6f 00 	jmp	0xde	; 0xde <__bad_interrupt>
  1c:	0c 94 6f 00 	jmp	0xde	; 0xde <__bad_interrupt>
  20:	0c 94 6f 00 	jmp	0xde	; 0xde <__bad_interrupt>
  24:	0c 94 6f 00 	jmp	0xde	; 0xde <__bad_interrupt>
  28:	0c 94 6f 00 	jmp	0xde	; 0xde <__bad_interrupt>
  2c:	0c 94 6f 00 	jmp	0xde	; 0xde <__bad_interrupt>
  30:	0c 94 6f 00 	jmp	0xde	; 0xde <__bad_interrupt>
  34:	0c 94 6f 00 	jmp	0xde	; 0xde <__bad_interrupt>
  38:	0c 94 6f 00 	jmp	0xde	; 0xde <__bad_interrupt>
  3c:	0c 94 6f 00 	jmp	0xde	; 0xde <__bad_interrupt>
  40:	0c 94 6f 00 	jmp	0xde	; 0xde <__bad_interrupt>
  44:	0c 94 6f 00 	jmp	0xde	; 0xde <__bad_interrupt>
  48:	0c 94 6f 00 	jmp	0xde	; 0xde <__bad_interrupt>
  4c:	0c 94 6f 00 	jmp	0xde	; 0xde <__bad_interrupt>
  50:	0c 94 6f 00 	jmp	0xde	; 0xde <__bad_interrupt>
  54:	0c 94 6f 00 	jmp	0xde	; 0xde <__bad_interrupt>
  58:	0c 94 6f 00 	jmp	0xde	; 0xde <__bad_interrupt>
  5c:	0c 94 6f 00 	jmp	0xde	; 0xde <__bad_interrupt>
  60:	0c 94 6f 00 	jmp	0xde	; 0xde <__bad_interrupt>
  64:	0c 94 6f 00 	jmp	0xde	; 0xde <__bad_interrupt>
  68:	0c 94 6f 00 	jmp	0xde	; 0xde <__bad_interrupt>
  6c:	0c 94 6f 00 	jmp	0xde	; 0xde <__bad_interrupt>
  70:	0c 94 6f 00 	jmp	0xde	; 0xde <__bad_interrupt>
  74:	0c 94 6f 00 	jmp	0xde	; 0xde <__bad_interrupt>
  78:	0c 94 6f 00 	jmp	0xde	; 0xde <__bad_interrupt>
  7c:	0c 94 6f 00 	jmp	0xde	; 0xde <__bad_interrupt>
  80:	0c 94 6f 00 	jmp	0xde	; 0xde <__bad_interrupt>
  84:	0c 94 6f 00 	jmp	0xde	; 0xde <__bad_interrupt>
  88:	0c 94 6f 00 	jmp	0xde	; 0xde <__bad_interrupt>
  8c:	0c 94 6f 00 	jmp	0xde	; 0xde <__bad_interrupt>
  90:	0c 94 6f 00 	jmp	0xde	; 0xde <__bad_interrupt>
  94:	0c 94 6f 00 	jmp	0xde	; 0xde <__bad_interrupt>
  98:	0c 94 6f 00 	jmp	0xde	; 0xde <__bad_interrupt>
  9c:	0c 94 6f 00 	jmp	0xde	; 0xde <__bad_interrupt>
  a0:	0c 94 6f 00 	jmp	0xde	; 0xde <__bad_interrupt>
  a4:	0c 94 6f 00 	jmp	0xde	; 0xde <__bad_interrupt>
  a8:	0c 94 6f 00 	jmp	0xde	; 0xde <__bad_interrupt>
  ac:	0c 94 6f 00 	jmp	0xde	; 0xde <__bad_interrupt>
  b0:	0c 94 6f 00 	jmp	0xde	; 0xde <__bad_interrupt>

000000b4 <__ctors_end>:
  b4:	11 24       	eor	r1, r1
  b6:	1f be       	out	0x3f, r1	; 63
  b8:	cf ef       	ldi	r28, 0xFF	; 255
  ba:	d8 e0       	ldi	r29, 0x08	; 8
  bc:	de bf       	out	0x3e, r29	; 62
  be:	cd bf       	out	0x3d, r28	; 61

000000c0 <__do_copy_data>:
  c0:	11 e0       	ldi	r17, 0x01	; 1
  c2:	a0 e0       	ldi	r26, 0x00	; 0
  c4:	b1 e0       	ldi	r27, 0x01	; 1
  c6:	e2 ea       	ldi	r30, 0xA2	; 162
  c8:	f6 e0       	ldi	r31, 0x06	; 6
  ca:	02 c0       	rjmp	.+4      	; 0xd0 <__do_copy_data+0x10>
  cc:	05 90       	lpm	r0, Z+
  ce:	0d 92       	st	X+, r0
  d0:	a2 31       	cpi	r26, 0x12	; 18
  d2:	b1 07       	cpc	r27, r17
  d4:	d9 f7       	brne	.-10     	; 0xcc <__do_copy_data+0xc>
  d6:	0e 94 87 01 	call	0x30e	; 0x30e <main>
  da:	0c 94 4f 03 	jmp	0x69e	; 0x69e <_exit>

000000de <__bad_interrupt>:
  de:	0c 94 00 00 	jmp	0	; 0x0 <__vectors>

000000e2 <lcd_enable_pulse>:
}

// this function allows us to return the cursor to home
void lcd_home(void)
{
	lcd_cmd(0x02);
  e2:	85 b1       	in	r24, 0x05	; 5
  e4:	88 60       	ori	r24, 0x08	; 8
  e6:	85 b9       	out	0x05, r24	; 5
  e8:	85 e0       	ldi	r24, 0x05	; 5
  ea:	8a 95       	dec	r24
  ec:	f1 f7       	brne	.-4      	; 0xea <lcd_enable_pulse+0x8>
  ee:	00 00       	nop
  f0:	85 b1       	in	r24, 0x05	; 5
  f2:	87 7f       	andi	r24, 0xF7	; 247
  f4:	85 b9       	out	0x05, r24	; 5
  f6:	87 ec       	ldi	r24, 0xC7	; 199
  f8:	90 e0       	ldi	r25, 0x00	; 0
  fa:	01 97       	sbiw	r24, 0x01	; 1
  fc:	f1 f7       	brne	.-4      	; 0xfa <lcd_enable_pulse+0x18>
  fe:	00 c0       	rjmp	.+0      	; 0x100 <lcd_enable_pulse+0x1e>
 100:	00 00       	nop
 102:	08 95       	ret

00000104 <lcd_send_nibble>:
 104:	9b b1       	in	r25, 0x0b	; 11
 106:	93 7c       	andi	r25, 0xC3	; 195
 108:	9b b9       	out	0x0b, r25	; 11
 10a:	83 ff       	sbrs	r24, 3
 10c:	03 c0       	rjmp	.+6      	; 0x114 <lcd_send_nibble+0x10>
 10e:	9b b1       	in	r25, 0x0b	; 11
 110:	94 60       	ori	r25, 0x04	; 4
 112:	9b b9       	out	0x0b, r25	; 11
 114:	82 ff       	sbrs	r24, 2
 116:	03 c0       	rjmp	.+6      	; 0x11e <lcd_send_nibble+0x1a>
 118:	9b b1       	in	r25, 0x0b	; 11
 11a:	98 60       	ori	r25, 0x08	; 8
 11c:	9b b9       	out	0x0b, r25	; 11
 11e:	81 ff       	sbrs	r24, 1
 120:	03 c0       	rjmp	.+6      	; 0x128 <lcd_send_nibble+0x24>
 122:	9b b1       	in	r25, 0x0b	; 11
 124:	90 61       	ori	r25, 0x10	; 16
 126:	9b b9       	out	0x0b, r25	; 11
 128:	80 ff       	sbrs	r24, 0
 12a:	03 c0       	rjmp	.+6      	; 0x132 <lcd_send_nibble+0x2e>
 12c:	8b b1       	in	r24, 0x0b	; 11
 12e:	80 62       	ori	r24, 0x20	; 32
 130:	8b b9       	out	0x0b, r24	; 11
 132:	0e 94 71 00 	call	0xe2	; 0xe2 <lcd_enable_pulse>
 136:	08 95       	ret

00000138 <lcd_send_byte>:
 138:	cf 93       	push	r28
 13a:	c8 2f       	mov	r28, r24
 13c:	61 30       	cpi	r22, 0x01	; 1
 13e:	21 f4       	brne	.+8      	; 0x148 <lcd_send_byte+0x10>
 140:	85 b1       	in	r24, 0x05	; 5
 142:	80 61       	ori	r24, 0x10	; 16
 144:	85 b9       	out	0x05, r24	; 5
 146:	03 c0       	rjmp	.+6      	; 0x14e <lcd_send_byte+0x16>
 148:	85 b1       	in	r24, 0x05	; 5
 14a:	8f 7e       	andi	r24, 0xEF	; 239
 14c:	85 b9       	out	0x05, r24	; 5
 14e:	8c 2f       	mov	r24, r28
 150:	82 95       	swap	r24
 152:	8f 70       	andi	r24, 0x0F	; 15
 154:	0e 94 82 00 	call	0x104	; 0x104 <lcd_send_nibble>
 158:	8c 2f       	mov	r24, r28
 15a:	8f 70       	andi	r24, 0x0F	; 15
 15c:	0e 94 82 00 	call	0x104	; 0x104 <lcd_send_nibble>
 160:	cf 91       	pop	r28
 162:	08 95       	ret

00000164 <lcd_cmd>:
 164:	cf 93       	push	r28
 166:	c8 2f       	mov	r28, r24
 168:	60 e0       	ldi	r22, 0x00	; 0
 16a:	0e 94 9c 00 	call	0x138	; 0x138 <lcd_send_byte>
 16e:	c1 50       	subi	r28, 0x01	; 1
 170:	c2 30       	cpi	r28, 0x02	; 2
 172:	30 f4       	brcc	.+12     	; 0x180 <lcd_cmd+0x1c>
 174:	8f e3       	ldi	r24, 0x3F	; 63
 176:	9f e1       	ldi	r25, 0x1F	; 31
 178:	01 97       	sbiw	r24, 0x01	; 1
 17a:	f1 f7       	brne	.-4      	; 0x178 <lcd_cmd+0x14>
 17c:	00 c0       	rjmp	.+0      	; 0x17e <lcd_cmd+0x1a>
 17e:	00 00       	nop
 180:	cf 91       	pop	r28
 182:	08 95       	ret

00000184 <lcd_data>:
 184:	61 e0       	ldi	r22, 0x01	; 1
 186:	0e 94 9c 00 	call	0x138	; 0x138 <lcd_send_byte>
 18a:	08 95       	ret

0000018c <lcd_set_cursor>:
 18c:	88 23       	and	r24, r24
 18e:	11 f0       	breq	.+4      	; 0x194 <lcd_set_cursor+0x8>
 190:	90 e4       	ldi	r25, 0x40	; 64
 192:	01 c0       	rjmp	.+2      	; 0x196 <lcd_set_cursor+0xa>
 194:	90 e0       	ldi	r25, 0x00	; 0
 196:	86 2f       	mov	r24, r22
 198:	8f 70       	andi	r24, 0x0F	; 15
 19a:	89 0f       	add	r24, r25
 19c:	80 68       	ori	r24, 0x80	; 128
 19e:	0e 94 b2 00 	call	0x164	; 0x164 <lcd_cmd>
 1a2:	08 95       	ret

000001a4 <lcd_print>:
 1a4:	cf 93       	push	r28
 1a6:	df 93       	push	r29
 1a8:	ec 01       	movw	r28, r24
 1aa:	03 c0       	rjmp	.+6      	; 0x1b2 <lcd_print+0xe>
 1ac:	21 96       	adiw	r28, 0x01	; 1
 1ae:	0e 94 c2 00 	call	0x184	; 0x184 <lcd_data>
 1b2:	88 81       	ld	r24, Y
 1b4:	81 11       	cpse	r24, r1
 1b6:	fa cf       	rjmp	.-12     	; 0x1ac <lcd_print+0x8>
 1b8:	df 91       	pop	r29
 1ba:	cf 91       	pop	r28
 1bc:	08 95       	ret

000001be <lcd_clear>:
 1be:	81 e0       	ldi	r24, 0x01	; 1
 1c0:	0e 94 b2 00 	call	0x164	; 0x164 <lcd_cmd>
 1c4:	08 95       	ret

000001c6 <lcd_init>:
// this function initialises the lcd. (initialisation sequence from datasheet)

void lcd_init(void)
{
	// Make control and data pins outputs
	LCD_RS_DDR |= (1<<LCD_RS_PIN);           // Setting data direction registers for RS and EN pin
 1c6:	84 b1       	in	r24, 0x04	; 4
 1c8:	80 61       	ori	r24, 0x10	; 16
 1ca:	84 b9       	out	0x04, r24	; 4
	LCD_EN_DDR |= (1<<LCD_EN_PIN);
 1cc:	84 b1       	in	r24, 0x04	; 4
 1ce:	88 60       	ori	r24, 0x08	; 8
 1d0:	84 b9       	out	0x04, r24	; 4
	LCD_D_DDR  |= (1<<LCD_D7_PIN)|(1<<LCD_D6_PIN)|(1<<LCD_D5_PIN)|(1<<LCD_D4_PIN); // setting DDR for data pins
 1d2:	8a b1       	in	r24, 0x0a	; 10
 1d4:	8c 63       	ori	r24, 0x3C	; 60
 1d6:	8a b9       	out	0x0a, r24	; 10
	#else
		//round up by default
		__ticks_dc = (uint32_t)(ceil(fabs(__tmp)));
	#endif

	__builtin_avr_delay_cycles(__ticks_dc);
 1d8:	2f ef       	ldi	r18, 0xFF	; 255
 1da:	89 ef       	ldi	r24, 0xF9	; 249
 1dc:	90 e0       	ldi	r25, 0x00	; 0
 1de:	21 50       	subi	r18, 0x01	; 1
 1e0:	80 40       	sbci	r24, 0x00	; 0
 1e2:	90 40       	sbci	r25, 0x00	; 0
 1e4:	e1 f7       	brne	.-8      	; 0x1de <lcd_init+0x18>
 1e6:	00 c0       	rjmp	.+0      	; 0x1e8 <lcd_init+0x22>
 1e8:	00 00       	nop

	_delay_ms(20);               // power-up wait
	LCD_RS_PORT &= ~(1<<LCD_RS_PIN); 				// RS=0
 1ea:	85 b1       	in	r24, 0x05	; 5
 1ec:	8f 7e       	andi	r24, 0xEF	; 239
 1ee:	85 b9       	out	0x05, r24	; 5

	//  8-bit wake-up sequence (sent as high nibbles). why nibbles?
	LCD_EN_PORT &= ~(1 << LCD_EN_PIN);   		 // make EN =0 .
 1f0:	85 b1       	in	r24, 0x05	; 5
 1f2:	87 7f       	andi	r24, 0xF7	; 247
 1f4:	85 b9       	out	0x05, r24	; 5
	lcd_send_nibble(0x03);
 1f6:	83 e0       	ldi	r24, 0x03	; 3
 1f8:	0e 94 82 00 	call	0x104	; 0x104 <lcd_send_nibble>
 1fc:	8f e1       	ldi	r24, 0x1F	; 31
 1fe:	9e e4       	ldi	r25, 0x4E	; 78
 200:	01 97       	sbiw	r24, 0x01	; 1
 202:	f1 f7       	brne	.-4      	; 0x200 <lcd_init+0x3a>
 204:	00 c0       	rjmp	.+0      	; 0x206 <lcd_init+0x40>
 206:	00 00       	nop
	_delay_ms(5);
	lcd_send_nibble(0x03);
 208:	83 e0       	ldi	r24, 0x03	; 3
 20a:	0e 94 82 00 	call	0x104	; 0x104 <lcd_send_nibble>
	#else
		//round up by default
		__ticks_dc = (uint32_t)(ceil(fabs(__tmp)));
	#endif

	__builtin_avr_delay_cycles(__ticks_dc);
 20e:	87 e5       	ldi	r24, 0x57	; 87
 210:	92 e0       	ldi	r25, 0x02	; 2
 212:	01 97       	sbiw	r24, 0x01	; 1
 214:	f1 f7       	brne	.-4      	; 0x212 <lcd_init+0x4c>
 216:	00 c0       	rjmp	.+0      	; 0x218 <lcd_init+0x52>
 218:	00 00       	nop
	_delay_us(150);
	lcd_send_nibble(0x03);
 21a:	83 e0       	ldi	r24, 0x03	; 3
 21c:	0e 94 82 00 	call	0x104	; 0x104 <lcd_send_nibble>
 220:	87 e5       	ldi	r24, 0x57	; 87
 222:	92 e0       	ldi	r25, 0x02	; 2
 224:	01 97       	sbiw	r24, 0x01	; 1
 226:	f1 f7       	brne	.-4      	; 0x224 <lcd_init+0x5e>
 228:	00 c0       	rjmp	.+0      	; 0x22a <lcd_init+0x64>
 22a:	00 00       	nop
	_delay_us(150);

	//Switch to 4-bit
	lcd_send_nibble(0x02);
 22c:	82 e0       	ldi	r24, 0x02	; 2
 22e:	0e 94 82 00 	call	0x104	; 0x104 <lcd_send_nibble>
 232:	87 e5       	ldi	r24, 0x57	; 87
 234:	92 e0       	ldi	r25, 0x02	; 2
 236:	01 97       	sbiw	r24, 0x01	; 1
 238:	f1 f7       	brne	.-4      	; 0x236 <lcd_init+0x70>
 23a:	00 c0       	rjmp	.+0      	; 0x23c <lcd_init+0x76>
 23c:	00 00       	nop
	_delay_us(150);

	// note that from here onwards its cmd !

	//Function set: 4-bit, 2 lines, 5x8 font
	lcd_cmd(0x28);
 23e:	88 e2       	ldi	r24, 0x28	; 40
 240:	0e 94 b2 00 	call	0x164	; 0x164 <lcd_cmd>

	//Display off

	lcd_cmd(0x08);
 244:	88 e0       	ldi	r24, 0x08	; 8
 246:	0e 94 b2 00 	call	0x164	; 0x164 <lcd_cmd>

	//Clear
	lcd_cmd(0x01);
 24a:	81 e0       	ldi	r24, 0x01	; 1
 24c:	0e 94 b2 00 	call	0x164	; 0x164 <lcd_cmd>

	//Entry mode: increment, no shift
	lcd_cmd(0x06);
 250:	86 e0       	ldi	r24, 0x06	; 6
 252:	0e 94 b2 00 	call	0x164	; 0x164 <lcd_cmd>


	// Display on, cursor off, blink off
	lcd_cmd(0x0C);
 256:	8c e0       	ldi	r24, 0x0C	; 12
 258:	0e 94 b2 00 	call	0x164	; 0x164 <lcd_cmd>
 25c:	08 95       	ret

0000025e <lcd_print_uint16>:
}

// function to print integers.
void lcd_print_uint16(uint16_t v)
{
 25e:	1f 93       	push	r17
 260:	cf 93       	push	r28
 262:	df 93       	push	r29
 264:	00 d0       	rcall	.+0      	; 0x266 <lcd_print_uint16+0x8>
 266:	00 d0       	rcall	.+0      	; 0x268 <lcd_print_uint16+0xa>
 268:	00 d0       	rcall	.+0      	; 0x26a <lcd_print_uint16+0xc>
 26a:	cd b7       	in	r28, 0x3d	; 61
 26c:	de b7       	in	r29, 0x3e	; 62
 26e:	ac 01       	movw	r20, r24
	char buf[6];      // uint16_t max = 65535 ? 5 digits
	uint8_t i = 0;
	if (v == 0)
 270:	89 2b       	or	r24, r25
 272:	91 f5       	brne	.+100    	; 0x2d8 <lcd_print_uint16+0x7a>
	{
		lcd_data('0');
 274:	80 e3       	ldi	r24, 0x30	; 48
 276:	0e 94 c2 00 	call	0x184	; 0x184 <lcd_data>
 27a:	3f c0       	rjmp	.+126    	; 0x2fa <lcd_print_uint16+0x9c>
		return;
	}
	while (v > 0)
	{
		buf[i++] = '0' + (v % 10);
 27c:	9a 01       	movw	r18, r20
 27e:	ad ec       	ldi	r26, 0xCD	; 205
 280:	bc ec       	ldi	r27, 0xCC	; 204
 282:	0e 94 40 03 	call	0x680	; 0x680 <__umulhisi3>
 286:	96 95       	lsr	r25
 288:	87 95       	ror	r24
 28a:	96 95       	lsr	r25
 28c:	87 95       	ror	r24
 28e:	96 95       	lsr	r25
 290:	87 95       	ror	r24
 292:	9c 01       	movw	r18, r24
 294:	22 0f       	add	r18, r18
 296:	33 1f       	adc	r19, r19
 298:	88 0f       	add	r24, r24
 29a:	99 1f       	adc	r25, r25
 29c:	88 0f       	add	r24, r24
 29e:	99 1f       	adc	r25, r25
 2a0:	88 0f       	add	r24, r24
 2a2:	99 1f       	adc	r25, r25
 2a4:	82 0f       	add	r24, r18
 2a6:	93 1f       	adc	r25, r19
 2a8:	9a 01       	movw	r18, r20
 2aa:	28 1b       	sub	r18, r24
 2ac:	39 0b       	sbc	r19, r25
 2ae:	c9 01       	movw	r24, r18
 2b0:	e1 e0       	ldi	r30, 0x01	; 1
 2b2:	f0 e0       	ldi	r31, 0x00	; 0
 2b4:	ec 0f       	add	r30, r28
 2b6:	fd 1f       	adc	r31, r29
 2b8:	e1 0f       	add	r30, r17
 2ba:	f1 1d       	adc	r31, r1
 2bc:	80 5d       	subi	r24, 0xD0	; 208
 2be:	80 83       	st	Z, r24
		v /= 10;
 2c0:	9a 01       	movw	r18, r20
 2c2:	0e 94 40 03 	call	0x680	; 0x680 <__umulhisi3>
 2c6:	ac 01       	movw	r20, r24
 2c8:	56 95       	lsr	r21
 2ca:	47 95       	ror	r20
 2cc:	56 95       	lsr	r21
 2ce:	47 95       	ror	r20
 2d0:	56 95       	lsr	r21
 2d2:	47 95       	ror	r20
		lcd_data('0');
		return;
	}
	while (v > 0)
	{
		buf[i++] = '0' + (v % 10);
 2d4:	1f 5f       	subi	r17, 0xFF	; 255
 2d6:	01 c0       	rjmp	.+2      	; 0x2da <lcd_print_uint16+0x7c>
 2d8:	10 e0       	ldi	r17, 0x00	; 0
	if (v == 0)
	{
		lcd_data('0');
		return;
	}
	while (v > 0)
 2da:	41 15       	cp	r20, r1
 2dc:	51 05       	cpc	r21, r1
 2de:	71 f6       	brne	.-100    	; 0x27c <lcd_print_uint16+0x1e>
 2e0:	0a c0       	rjmp	.+20     	; 0x2f6 <lcd_print_uint16+0x98>
		v /= 10;
	}

	while (i > 0)
	{
		lcd_data(buf[--i]);
 2e2:	11 50       	subi	r17, 0x01	; 1
 2e4:	e1 e0       	ldi	r30, 0x01	; 1
 2e6:	f0 e0       	ldi	r31, 0x00	; 0
 2e8:	ec 0f       	add	r30, r28
 2ea:	fd 1f       	adc	r31, r29
 2ec:	e1 0f       	add	r30, r17
 2ee:	f1 1d       	adc	r31, r1
 2f0:	80 81       	ld	r24, Z
 2f2:	0e 94 c2 00 	call	0x184	; 0x184 <lcd_data>
	{
		buf[i++] = '0' + (v % 10);
		v /= 10;
	}

	while (i > 0)
 2f6:	11 11       	cpse	r17, r1
 2f8:	f4 cf       	rjmp	.-24     	; 0x2e2 <lcd_print_uint16+0x84>
	{
		lcd_data(buf[--i]);
	}
}
 2fa:	26 96       	adiw	r28, 0x06	; 6
 2fc:	0f b6       	in	r0, 0x3f	; 63
 2fe:	f8 94       	cli
 300:	de bf       	out	0x3e, r29	; 62
 302:	0f be       	out	0x3f, r0	; 63
 304:	cd bf       	out	0x3d, r28	; 61
 306:	df 91       	pop	r29
 308:	cf 91       	pop	r28
 30a:	1f 91       	pop	r17
 30c:	08 95       	ret

0000030e <main>:
#include "lcd.h"


int main(void)
{
   lcd_init();
 30e:	0e 94 e3 00 	call	0x1c6	; 0x1c6 <lcd_init>
   UBRR0H =0;   //USART configuration 
 312:	10 92 c5 00 	sts	0x00C5, r1	; 0x8000c5 <__TEXT_REGION_LENGTH__+0x7f80c5>
   UBRR0L = 103;
 316:	87 e6       	ldi	r24, 0x67	; 103
 318:	80 93 c4 00 	sts	0x00C4, r24	; 0x8000c4 <__TEXT_REGION_LENGTH__+0x7f80c4>
   uint8_t temp;
   temp = 0;
   DDRD |= (1<<DDD6);
 31c:	8a b1       	in	r24, 0x0a	; 10
 31e:	80 64       	ori	r24, 0x40	; 64
 320:	8a b9       	out	0x0a, r24	; 10
   TCCR0A = (1<<COM0A1) | (1<<WGM01) | (1<<WGM00); //timer 0
 322:	83 e8       	ldi	r24, 0x83	; 131
 324:	84 bd       	out	0x24, r24	; 36
   TCCR0B = (1<<CS02);     // Prescaler 
 326:	84 e0       	ldi	r24, 0x04	; 4
 328:	85 bd       	out	0x25, r24	; 37
   
   UCSR0B|=(1<<RXEN0); //USART reciever enable.
 32a:	e1 ec       	ldi	r30, 0xC1	; 193
 32c:	f0 e0       	ldi	r31, 0x00	; 0
 32e:	80 81       	ld	r24, Z
 330:	80 61       	ori	r24, 0x10	; 16
 332:	80 83       	st	Z, r24
   UCSR0B|=(1<<TXEN0); //USART Transmitter enable.
 334:	80 81       	ld	r24, Z
 336:	88 60       	ori	r24, 0x08	; 8
 338:	80 83       	st	Z, r24
   
   UCSR0C = (1<<UCSZ01)|(1<<UCSZ00);                                 // 8-Bit  No parity  1 stop bit
 33a:	86 e0       	ldi	r24, 0x06	; 6
 33c:	80 93 c2 00 	sts	0x00C2, r24	; 0x8000c2 <__TEXT_REGION_LENGTH__+0x7f80c2>
   DDRC &= ~(1<<PC3);                                                //Set analog channel as PC3
 340:	87 b1       	in	r24, 0x07	; 7
 342:	87 7f       	andi	r24, 0xF7	; 247
 344:	87 b9       	out	0x07, r24	; 7
    DDRB |= (1<<DDB1) | (1<<DDB2);  //Enable L293d
 346:	84 b1       	in	r24, 0x04	; 4
 348:	86 60       	ori	r24, 0x06	; 6
 34a:	84 b9       	out	0x04, r24	; 4
   ADMUX = (1<<REFS0) | (1<<MUX1) | (1<<MUX0);  
 34c:	83 e4       	ldi	r24, 0x43	; 67
 34e:	80 93 7c 00 	sts	0x007C, r24	; 0x80007c <__TEXT_REGION_LENGTH__+0x7f807c>
   ADCSRA = (1<<ADEN) |(1<<ADPS2) |(1<<ADPS1) |(1<<ADPS0); //prescalar value analog
 352:	87 e8       	ldi	r24, 0x87	; 135
 354:	80 93 7a 00 	sts	0x007A, r24	; 0x80007a <__TEXT_REGION_LENGTH__+0x7f807a>
 
 PORTB |= (1<<PB1);
 358:	85 b1       	in	r24, 0x05	; 5
 35a:	82 60       	ori	r24, 0x02	; 2
 35c:	85 b9       	out	0x05, r24	; 5
 PORTB &= ~(1<<PB2);
 35e:	85 b1       	in	r24, 0x05	; 5
 360:	8b 7f       	andi	r24, 0xFB	; 251
 362:	85 b9       	out	0x05, r24	; 5
{
   lcd_init();
   UBRR0H =0;   //USART configuration 
   UBRR0L = 103;
   uint8_t temp;
   temp = 0;
 364:	c0 e0       	ldi	r28, 0x00	; 0
 PORTB &= ~(1<<PB2);

    while (1) 
    {
	
		ADCSRA |=(1<<ADSC);
 366:	ea e7       	ldi	r30, 0x7A	; 122
 368:	f0 e0       	ldi	r31, 0x00	; 0
 36a:	80 81       	ld	r24, Z
 36c:	80 64       	ori	r24, 0x40	; 64
 36e:	80 83       	st	Z, r24
		while(ADCSRA & (1<<ADSC));  //analog read
 370:	80 91 7a 00 	lds	r24, 0x007A	; 0x80007a <__TEXT_REGION_LENGTH__+0x7f807a>
 374:	86 fd       	sbrc	r24, 6
 376:	fc cf       	rjmp	.-8      	; 0x370 <main+0x62>
		int temp_int = ADC * 0.49; 
 378:	60 91 78 00 	lds	r22, 0x0078	; 0x800078 <__TEXT_REGION_LENGTH__+0x7f8078>
 37c:	70 91 79 00 	lds	r23, 0x0079	; 0x800079 <__TEXT_REGION_LENGTH__+0x7f8079>
 380:	80 e0       	ldi	r24, 0x00	; 0
 382:	90 e0       	ldi	r25, 0x00	; 0
 384:	0e 94 45 02 	call	0x48a	; 0x48a <__floatunsisf>
 388:	28 e4       	ldi	r18, 0x48	; 72
 38a:	31 ee       	ldi	r19, 0xE1	; 225
 38c:	4a ef       	ldi	r20, 0xFA	; 250
 38e:	5e e3       	ldi	r21, 0x3E	; 62
 390:	0e 94 d3 02 	call	0x5a6	; 0x5a6 <__mulsf3>
 394:	0e 94 0f 02 	call	0x41e	; 0x41e <__fixsfsi>
 398:	d6 2f       	mov	r29, r22
 39a:	17 2f       	mov	r17, r23
		lcd_clear();
 39c:	0e 94 df 00 	call	0x1be	; 0x1be <lcd_clear>
		
		
		if(!(UCSR0A & (1<<UDRE0))); //Send bits without waiting. 
 3a0:	80 91 c0 00 	lds	r24, 0x00C0	; 0x8000c0 <__TEXT_REGION_LENGTH__+0x7f80c0>
		UDR0 = temp_int;
 3a4:	d0 93 c6 00 	sts	0x00C6, r29	; 0x8000c6 <__TEXT_REGION_LENGTH__+0x7f80c6>
	#else
		//round up by default
		__ticks_dc = (uint32_t)(ceil(fabs(__tmp)));
	#endif

	__builtin_avr_delay_cycles(__ticks_dc);
 3a8:	2f ef       	ldi	r18, 0xFF	; 255
 3aa:	87 ea       	ldi	r24, 0xA7	; 167
 3ac:	91 e6       	ldi	r25, 0x61	; 97
 3ae:	21 50       	subi	r18, 0x01	; 1
 3b0:	80 40       	sbci	r24, 0x00	; 0
 3b2:	90 40       	sbci	r25, 0x00	; 0
 3b4:	e1 f7       	brne	.-8      	; 0x3ae <main+0xa0>
 3b6:	00 c0       	rjmp	.+0      	; 0x3b8 <main+0xaa>
 3b8:	00 00       	nop
		_delay_ms(2000);
		OCR0A = 0;
 3ba:	17 bc       	out	0x27, r1	; 39
			
				//Fan speed control
				if(temp > 60)
 3bc:	cd 33       	cpi	r28, 0x3D	; 61
 3be:	18 f0       	brcs	.+6      	; 0x3c6 <main+0xb8>
				{
					OCR0A = 255; //Fan speed Maximum
 3c0:	8f ef       	ldi	r24, 0xFF	; 255
 3c2:	87 bd       	out	0x27, r24	; 39
 3c4:	06 c0       	rjmp	.+12     	; 0x3d2 <main+0xc4>
				}
				else if(temp > 30)
 3c6:	cf 31       	cpi	r28, 0x1F	; 31
 3c8:	18 f0       	brcs	.+6      	; 0x3d0 <main+0xc2>
				{
					OCR0A = 128;	//Fan speed 50%
 3ca:	80 e8       	ldi	r24, 0x80	; 128
 3cc:	87 bd       	out	0x27, r24	; 39
 3ce:	01 c0       	rjmp	.+2      	; 0x3d2 <main+0xc4>
				}
				else
				{
					OCR0A = 0; //Fan off
 3d0:	17 bc       	out	0x27, r1	; 39
				}
				
				lcd_set_cursor(0,0);
 3d2:	60 e0       	ldi	r22, 0x00	; 0
 3d4:	80 e0       	ldi	r24, 0x00	; 0
 3d6:	0e 94 c6 00 	call	0x18c	; 0x18c <lcd_set_cursor>
				lcd_print("Recieve:");
 3da:	80 e0       	ldi	r24, 0x00	; 0
 3dc:	91 e0       	ldi	r25, 0x01	; 1
 3de:	0e 94 d2 00 	call	0x1a4	; 0x1a4 <lcd_print>
				lcd_print_uint16(temp);
 3e2:	8c 2f       	mov	r24, r28
 3e4:	90 e0       	ldi	r25, 0x00	; 0
 3e6:	0e 94 2f 01 	call	0x25e	; 0x25e <lcd_print_uint16>
				lcd_set_cursor(1,0);
 3ea:	60 e0       	ldi	r22, 0x00	; 0
 3ec:	81 e0       	ldi	r24, 0x01	; 1
 3ee:	0e 94 c6 00 	call	0x18c	; 0x18c <lcd_set_cursor>
				lcd_print("Local: ");
 3f2:	89 e0       	ldi	r24, 0x09	; 9
 3f4:	91 e0       	ldi	r25, 0x01	; 1
 3f6:	0e 94 d2 00 	call	0x1a4	; 0x1a4 <lcd_print>
				lcd_print_uint16(temp_int);
 3fa:	8d 2f       	mov	r24, r29
 3fc:	91 2f       	mov	r25, r17
 3fe:	0e 94 2f 01 	call	0x25e	; 0x25e <lcd_print_uint16>
		
		if(!(UCSR0A & (1<<RXC0)));  //data received from usart
 402:	80 91 c0 00 	lds	r24, 0x00C0	; 0x8000c0 <__TEXT_REGION_LENGTH__+0x7f80c0>
		temp = UDR0;
 406:	c0 91 c6 00 	lds	r28, 0x00C6	; 0x8000c6 <__TEXT_REGION_LENGTH__+0x7f80c6>
 40a:	2f ef       	ldi	r18, 0xFF	; 255
 40c:	87 ea       	ldi	r24, 0xA7	; 167
 40e:	91 e6       	ldi	r25, 0x61	; 97
 410:	21 50       	subi	r18, 0x01	; 1
 412:	80 40       	sbci	r24, 0x00	; 0
 414:	90 40       	sbci	r25, 0x00	; 0
 416:	e1 f7       	brne	.-8      	; 0x410 <__EEPROM_REGION_LENGTH__+0x10>
 418:	00 c0       	rjmp	.+0      	; 0x41a <__EEPROM_REGION_LENGTH__+0x1a>
 41a:	00 00       	nop
 41c:	a4 cf       	rjmp	.-184    	; 0x366 <main+0x58>

0000041e <__fixsfsi>:
 41e:	0e 94 16 02 	call	0x42c	; 0x42c <__fixunssfsi>
 422:	68 94       	set
 424:	b1 11       	cpse	r27, r1
 426:	0c 94 cd 02 	jmp	0x59a	; 0x59a <__fp_szero>
 42a:	08 95       	ret

0000042c <__fixunssfsi>:
 42c:	0e 94 b2 02 	call	0x564	; 0x564 <__fp_splitA>
 430:	88 f0       	brcs	.+34     	; 0x454 <__fixunssfsi+0x28>
 432:	9f 57       	subi	r25, 0x7F	; 127
 434:	98 f0       	brcs	.+38     	; 0x45c <__fixunssfsi+0x30>
 436:	b9 2f       	mov	r27, r25
 438:	99 27       	eor	r25, r25
 43a:	b7 51       	subi	r27, 0x17	; 23
 43c:	b0 f0       	brcs	.+44     	; 0x46a <__fixunssfsi+0x3e>
 43e:	e1 f0       	breq	.+56     	; 0x478 <__fixunssfsi+0x4c>
 440:	66 0f       	add	r22, r22
 442:	77 1f       	adc	r23, r23
 444:	88 1f       	adc	r24, r24
 446:	99 1f       	adc	r25, r25
 448:	1a f0       	brmi	.+6      	; 0x450 <__fixunssfsi+0x24>
 44a:	ba 95       	dec	r27
 44c:	c9 f7       	brne	.-14     	; 0x440 <__fixunssfsi+0x14>
 44e:	14 c0       	rjmp	.+40     	; 0x478 <__fixunssfsi+0x4c>
 450:	b1 30       	cpi	r27, 0x01	; 1
 452:	91 f0       	breq	.+36     	; 0x478 <__fixunssfsi+0x4c>
 454:	0e 94 cc 02 	call	0x598	; 0x598 <__fp_zero>
 458:	b1 e0       	ldi	r27, 0x01	; 1
 45a:	08 95       	ret
 45c:	0c 94 cc 02 	jmp	0x598	; 0x598 <__fp_zero>
 460:	67 2f       	mov	r22, r23
 462:	78 2f       	mov	r23, r24
 464:	88 27       	eor	r24, r24
 466:	b8 5f       	subi	r27, 0xF8	; 248
 468:	39 f0       	breq	.+14     	; 0x478 <__fixunssfsi+0x4c>
 46a:	b9 3f       	cpi	r27, 0xF9	; 249
 46c:	cc f3       	brlt	.-14     	; 0x460 <__fixunssfsi+0x34>
 46e:	86 95       	lsr	r24
 470:	77 95       	ror	r23
 472:	67 95       	ror	r22
 474:	b3 95       	inc	r27
 476:	d9 f7       	brne	.-10     	; 0x46e <__fixunssfsi+0x42>
 478:	3e f4       	brtc	.+14     	; 0x488 <__fixunssfsi+0x5c>
 47a:	90 95       	com	r25
 47c:	80 95       	com	r24
 47e:	70 95       	com	r23
 480:	61 95       	neg	r22
 482:	7f 4f       	sbci	r23, 0xFF	; 255
 484:	8f 4f       	sbci	r24, 0xFF	; 255
 486:	9f 4f       	sbci	r25, 0xFF	; 255
 488:	08 95       	ret

0000048a <__floatunsisf>:
 48a:	e8 94       	clt
 48c:	09 c0       	rjmp	.+18     	; 0x4a0 <__floatsisf+0x12>

0000048e <__floatsisf>:
 48e:	97 fb       	bst	r25, 7
 490:	3e f4       	brtc	.+14     	; 0x4a0 <__floatsisf+0x12>
 492:	90 95       	com	r25
 494:	80 95       	com	r24
 496:	70 95       	com	r23
 498:	61 95       	neg	r22
 49a:	7f 4f       	sbci	r23, 0xFF	; 255
 49c:	8f 4f       	sbci	r24, 0xFF	; 255
 49e:	9f 4f       	sbci	r25, 0xFF	; 255
 4a0:	99 23       	and	r25, r25
 4a2:	a9 f0       	breq	.+42     	; 0x4ce <__floatsisf+0x40>
 4a4:	f9 2f       	mov	r31, r25
 4a6:	96 e9       	ldi	r25, 0x96	; 150
 4a8:	bb 27       	eor	r27, r27
 4aa:	93 95       	inc	r25
 4ac:	f6 95       	lsr	r31
 4ae:	87 95       	ror	r24
 4b0:	77 95       	ror	r23
 4b2:	67 95       	ror	r22
 4b4:	b7 95       	ror	r27
 4b6:	f1 11       	cpse	r31, r1
 4b8:	f8 cf       	rjmp	.-16     	; 0x4aa <__floatsisf+0x1c>
 4ba:	fa f4       	brpl	.+62     	; 0x4fa <__floatsisf+0x6c>
 4bc:	bb 0f       	add	r27, r27
 4be:	11 f4       	brne	.+4      	; 0x4c4 <__floatsisf+0x36>
 4c0:	60 ff       	sbrs	r22, 0
 4c2:	1b c0       	rjmp	.+54     	; 0x4fa <__floatsisf+0x6c>
 4c4:	6f 5f       	subi	r22, 0xFF	; 255
 4c6:	7f 4f       	sbci	r23, 0xFF	; 255
 4c8:	8f 4f       	sbci	r24, 0xFF	; 255
 4ca:	9f 4f       	sbci	r25, 0xFF	; 255
 4cc:	16 c0       	rjmp	.+44     	; 0x4fa <__floatsisf+0x6c>
 4ce:	88 23       	and	r24, r24
 4d0:	11 f0       	breq	.+4      	; 0x4d6 <__floatsisf+0x48>
 4d2:	96 e9       	ldi	r25, 0x96	; 150
 4d4:	11 c0       	rjmp	.+34     	; 0x4f8 <__floatsisf+0x6a>
 4d6:	77 23       	and	r23, r23
 4d8:	21 f0       	breq	.+8      	; 0x4e2 <__floatsisf+0x54>
 4da:	9e e8       	ldi	r25, 0x8E	; 142
 4dc:	87 2f       	mov	r24, r23
 4de:	76 2f       	mov	r23, r22
 4e0:	05 c0       	rjmp	.+10     	; 0x4ec <__floatsisf+0x5e>
 4e2:	66 23       	and	r22, r22
 4e4:	71 f0       	breq	.+28     	; 0x502 <__floatsisf+0x74>
 4e6:	96 e8       	ldi	r25, 0x86	; 134
 4e8:	86 2f       	mov	r24, r22
 4ea:	70 e0       	ldi	r23, 0x00	; 0
 4ec:	60 e0       	ldi	r22, 0x00	; 0
 4ee:	2a f0       	brmi	.+10     	; 0x4fa <__floatsisf+0x6c>
 4f0:	9a 95       	dec	r25
 4f2:	66 0f       	add	r22, r22
 4f4:	77 1f       	adc	r23, r23
 4f6:	88 1f       	adc	r24, r24
 4f8:	da f7       	brpl	.-10     	; 0x4f0 <__floatsisf+0x62>
 4fa:	88 0f       	add	r24, r24
 4fc:	96 95       	lsr	r25
 4fe:	87 95       	ror	r24
 500:	97 f9       	bld	r25, 7
 502:	08 95       	ret

00000504 <__fp_inf>:
 504:	97 f9       	bld	r25, 7
 506:	9f 67       	ori	r25, 0x7F	; 127
 508:	80 e8       	ldi	r24, 0x80	; 128
 50a:	70 e0       	ldi	r23, 0x00	; 0
 50c:	60 e0       	ldi	r22, 0x00	; 0
 50e:	08 95       	ret

00000510 <__fp_nan>:
 510:	9f ef       	ldi	r25, 0xFF	; 255
 512:	80 ec       	ldi	r24, 0xC0	; 192
 514:	08 95       	ret

00000516 <__fp_pscA>:
 516:	00 24       	eor	r0, r0
 518:	0a 94       	dec	r0
 51a:	16 16       	cp	r1, r22
 51c:	17 06       	cpc	r1, r23
 51e:	18 06       	cpc	r1, r24
 520:	09 06       	cpc	r0, r25
 522:	08 95       	ret

00000524 <__fp_pscB>:
 524:	00 24       	eor	r0, r0
 526:	0a 94       	dec	r0
 528:	12 16       	cp	r1, r18
 52a:	13 06       	cpc	r1, r19
 52c:	14 06       	cpc	r1, r20
 52e:	05 06       	cpc	r0, r21
 530:	08 95       	ret

00000532 <__fp_round>:
 532:	09 2e       	mov	r0, r25
 534:	03 94       	inc	r0
 536:	00 0c       	add	r0, r0
 538:	11 f4       	brne	.+4      	; 0x53e <__fp_round+0xc>
 53a:	88 23       	and	r24, r24
 53c:	52 f0       	brmi	.+20     	; 0x552 <__fp_round+0x20>
 53e:	bb 0f       	add	r27, r27
 540:	40 f4       	brcc	.+16     	; 0x552 <__fp_round+0x20>
 542:	bf 2b       	or	r27, r31
 544:	11 f4       	brne	.+4      	; 0x54a <__fp_round+0x18>
 546:	60 ff       	sbrs	r22, 0
 548:	04 c0       	rjmp	.+8      	; 0x552 <__fp_round+0x20>
 54a:	6f 5f       	subi	r22, 0xFF	; 255
 54c:	7f 4f       	sbci	r23, 0xFF	; 255
 54e:	8f 4f       	sbci	r24, 0xFF	; 255
 550:	9f 4f       	sbci	r25, 0xFF	; 255
 552:	08 95       	ret

00000554 <__fp_split3>:
 554:	57 fd       	sbrc	r21, 7
 556:	90 58       	subi	r25, 0x80	; 128
 558:	44 0f       	add	r20, r20
 55a:	55 1f       	adc	r21, r21
 55c:	59 f0       	breq	.+22     	; 0x574 <__fp_splitA+0x10>
 55e:	5f 3f       	cpi	r21, 0xFF	; 255
 560:	71 f0       	breq	.+28     	; 0x57e <__fp_splitA+0x1a>
 562:	47 95       	ror	r20

00000564 <__fp_splitA>:
 564:	88 0f       	add	r24, r24
 566:	97 fb       	bst	r25, 7
 568:	99 1f       	adc	r25, r25
 56a:	61 f0       	breq	.+24     	; 0x584 <__fp_splitA+0x20>
 56c:	9f 3f       	cpi	r25, 0xFF	; 255
 56e:	79 f0       	breq	.+30     	; 0x58e <__fp_splitA+0x2a>
 570:	87 95       	ror	r24
 572:	08 95       	ret
 574:	12 16       	cp	r1, r18
 576:	13 06       	cpc	r1, r19
 578:	14 06       	cpc	r1, r20
 57a:	55 1f       	adc	r21, r21
 57c:	f2 cf       	rjmp	.-28     	; 0x562 <__fp_split3+0xe>
 57e:	46 95       	lsr	r20
 580:	f1 df       	rcall	.-30     	; 0x564 <__fp_splitA>
 582:	08 c0       	rjmp	.+16     	; 0x594 <__fp_splitA+0x30>
 584:	16 16       	cp	r1, r22
 586:	17 06       	cpc	r1, r23
 588:	18 06       	cpc	r1, r24
 58a:	99 1f       	adc	r25, r25
 58c:	f1 cf       	rjmp	.-30     	; 0x570 <__fp_splitA+0xc>
 58e:	86 95       	lsr	r24
 590:	71 05       	cpc	r23, r1
 592:	61 05       	cpc	r22, r1
 594:	08 94       	sec
 596:	08 95       	ret

00000598 <__fp_zero>:
 598:	e8 94       	clt

0000059a <__fp_szero>:
 59a:	bb 27       	eor	r27, r27
 59c:	66 27       	eor	r22, r22
 59e:	77 27       	eor	r23, r23
 5a0:	cb 01       	movw	r24, r22
 5a2:	97 f9       	bld	r25, 7
 5a4:	08 95       	ret

000005a6 <__mulsf3>:
 5a6:	0e 94 e6 02 	call	0x5cc	; 0x5cc <__mulsf3x>
 5aa:	0c 94 99 02 	jmp	0x532	; 0x532 <__fp_round>
 5ae:	0e 94 8b 02 	call	0x516	; 0x516 <__fp_pscA>
 5b2:	38 f0       	brcs	.+14     	; 0x5c2 <__mulsf3+0x1c>
 5b4:	0e 94 92 02 	call	0x524	; 0x524 <__fp_pscB>
 5b8:	20 f0       	brcs	.+8      	; 0x5c2 <__mulsf3+0x1c>
 5ba:	95 23       	and	r25, r21
 5bc:	11 f0       	breq	.+4      	; 0x5c2 <__mulsf3+0x1c>
 5be:	0c 94 82 02 	jmp	0x504	; 0x504 <__fp_inf>
 5c2:	0c 94 88 02 	jmp	0x510	; 0x510 <__fp_nan>
 5c6:	11 24       	eor	r1, r1
 5c8:	0c 94 cd 02 	jmp	0x59a	; 0x59a <__fp_szero>

000005cc <__mulsf3x>:
 5cc:	0e 94 aa 02 	call	0x554	; 0x554 <__fp_split3>
 5d0:	70 f3       	brcs	.-36     	; 0x5ae <__mulsf3+0x8>

000005d2 <__mulsf3_pse>:
 5d2:	95 9f       	mul	r25, r21
 5d4:	c1 f3       	breq	.-16     	; 0x5c6 <__mulsf3+0x20>
 5d6:	95 0f       	add	r25, r21
 5d8:	50 e0       	ldi	r21, 0x00	; 0
 5da:	55 1f       	adc	r21, r21
 5dc:	62 9f       	mul	r22, r18
 5de:	f0 01       	movw	r30, r0
 5e0:	72 9f       	mul	r23, r18
 5e2:	bb 27       	eor	r27, r27
 5e4:	f0 0d       	add	r31, r0
 5e6:	b1 1d       	adc	r27, r1
 5e8:	63 9f       	mul	r22, r19
 5ea:	aa 27       	eor	r26, r26
 5ec:	f0 0d       	add	r31, r0
 5ee:	b1 1d       	adc	r27, r1
 5f0:	aa 1f       	adc	r26, r26
 5f2:	64 9f       	mul	r22, r20
 5f4:	66 27       	eor	r22, r22
 5f6:	b0 0d       	add	r27, r0
 5f8:	a1 1d       	adc	r26, r1
 5fa:	66 1f       	adc	r22, r22
 5fc:	82 9f       	mul	r24, r18
 5fe:	22 27       	eor	r18, r18
 600:	b0 0d       	add	r27, r0
 602:	a1 1d       	adc	r26, r1
 604:	62 1f       	adc	r22, r18
 606:	73 9f       	mul	r23, r19
 608:	b0 0d       	add	r27, r0
 60a:	a1 1d       	adc	r26, r1
 60c:	62 1f       	adc	r22, r18
 60e:	83 9f       	mul	r24, r19
 610:	a0 0d       	add	r26, r0
 612:	61 1d       	adc	r22, r1
 614:	22 1f       	adc	r18, r18
 616:	74 9f       	mul	r23, r20
 618:	33 27       	eor	r19, r19
 61a:	a0 0d       	add	r26, r0
 61c:	61 1d       	adc	r22, r1
 61e:	23 1f       	adc	r18, r19
 620:	84 9f       	mul	r24, r20
 622:	60 0d       	add	r22, r0
 624:	21 1d       	adc	r18, r1
 626:	82 2f       	mov	r24, r18
 628:	76 2f       	mov	r23, r22
 62a:	6a 2f       	mov	r22, r26
 62c:	11 24       	eor	r1, r1
 62e:	9f 57       	subi	r25, 0x7F	; 127
 630:	50 40       	sbci	r21, 0x00	; 0
 632:	9a f0       	brmi	.+38     	; 0x65a <__mulsf3_pse+0x88>
 634:	f1 f0       	breq	.+60     	; 0x672 <__mulsf3_pse+0xa0>
 636:	88 23       	and	r24, r24
 638:	4a f0       	brmi	.+18     	; 0x64c <__mulsf3_pse+0x7a>
 63a:	ee 0f       	add	r30, r30
 63c:	ff 1f       	adc	r31, r31
 63e:	bb 1f       	adc	r27, r27
 640:	66 1f       	adc	r22, r22
 642:	77 1f       	adc	r23, r23
 644:	88 1f       	adc	r24, r24
 646:	91 50       	subi	r25, 0x01	; 1
 648:	50 40       	sbci	r21, 0x00	; 0
 64a:	a9 f7       	brne	.-22     	; 0x636 <__mulsf3_pse+0x64>
 64c:	9e 3f       	cpi	r25, 0xFE	; 254
 64e:	51 05       	cpc	r21, r1
 650:	80 f0       	brcs	.+32     	; 0x672 <__mulsf3_pse+0xa0>
 652:	0c 94 82 02 	jmp	0x504	; 0x504 <__fp_inf>
 656:	0c 94 cd 02 	jmp	0x59a	; 0x59a <__fp_szero>
 65a:	5f 3f       	cpi	r21, 0xFF	; 255
 65c:	e4 f3       	brlt	.-8      	; 0x656 <__mulsf3_pse+0x84>
 65e:	98 3e       	cpi	r25, 0xE8	; 232
 660:	d4 f3       	brlt	.-12     	; 0x656 <__mulsf3_pse+0x84>
 662:	86 95       	lsr	r24
 664:	77 95       	ror	r23
 666:	67 95       	ror	r22
 668:	b7 95       	ror	r27
 66a:	f7 95       	ror	r31
 66c:	e7 95       	ror	r30
 66e:	9f 5f       	subi	r25, 0xFF	; 255
 670:	c1 f7       	brne	.-16     	; 0x662 <__mulsf3_pse+0x90>
 672:	fe 2b       	or	r31, r30
 674:	88 0f       	add	r24, r24
 676:	91 1d       	adc	r25, r1
 678:	96 95       	lsr	r25
 67a:	87 95       	ror	r24
 67c:	97 f9       	bld	r25, 7
 67e:	08 95       	ret

00000680 <__umulhisi3>:
 680:	a2 9f       	mul	r26, r18
 682:	b0 01       	movw	r22, r0
 684:	b3 9f       	mul	r27, r19
 686:	c0 01       	movw	r24, r0
 688:	a3 9f       	mul	r26, r19
 68a:	70 0d       	add	r23, r0
 68c:	81 1d       	adc	r24, r1
 68e:	11 24       	eor	r1, r1
 690:	91 1d       	adc	r25, r1
 692:	b2 9f       	mul	r27, r18
 694:	70 0d       	add	r23, r0
 696:	81 1d       	adc	r24, r1
 698:	11 24       	eor	r1, r1
 69a:	91 1d       	adc	r25, r1
 69c:	08 95       	ret

0000069e <_exit>:
 69e:	f8 94       	cli

000006a0 <__stop_program>:
 6a0:	ff cf       	rjmp	.-2      	; 0x6a0 <__stop_program>
